#include <math.h>
#include <stdio.h>
#include <stdlib.h>
#include <string.h>

int main()
{
     int n,i,e,j;
     int sz[100];
     scanf("%d",&n);
     for(i=0;i<n;i++)
     {
        scanf("%d ",&sz[i]);
     }
     if(n%2==0)
     {
         for(i=0;i<n/2;i++)
         {
            for(j=0;j<n;j++)
            if(i+j==n-1)
            {
             e=sz[i];
             sz[i]=sz[j];
             sz[j]=e;
             }
         }
      }
      else
      {
           for(i=0;i<(n+1)/2;i++)
           {
            for(j=0;j<n;j++)
            if(i+j== n-1)
            {
             e=sz[i];
             sz[i]=sz[j];
             sz[j]=e;
             }
         }
      }
      for(i=0;i<n-1;i++)
      {
         printf("%d ",sz[i]);
      }
      printf("%d",sz[n-1]);
          return 0;
}